; ModuleID = '64/862.c'
source_filename = "64/862.c"
target datalayout = "e-m:e-p270:32:32-p271:32:32-p272:64:64-i64:64-f80:128-n8:16:32:64-S128"
target triple = "x86_64-pc-linux-gnu"

@.str = private unnamed_addr constant [3 x i8] c"%d\00", align 1
@.str.1 = private unnamed_addr constant [9 x i8] c"%d %d %d\00", align 1
@.str.2 = private unnamed_addr constant [29 x i8] c"(%d,%d,%d)-(%d,%d,%d)=%.2lf\0A\00", align 1

; Function Attrs: noinline nounwind uwtable
define dso_local i32 @main() #0 {
  %1 = alloca i32, align 4
  %2 = alloca i32, align 4
  %3 = alloca i32, align 4
  %4 = alloca i32, align 4
  %5 = alloca i32, align 4
  %6 = alloca i32, align 4
  %7 = alloca [50 x i32], align 16
  %8 = alloca [50 x i32], align 16
  %9 = alloca [10 x i32], align 16
  %10 = alloca [10 x i32], align 16
  %11 = alloca [10 x i32], align 16
  %12 = alloca i32, align 4
  %13 = alloca i32, align 4
  %14 = alloca [50 x double], align 16
  %15 = alloca double, align 8
  store i32 0, i32* %1, align 4
  store i32 -1, i32* %6, align 4
  %16 = call i32 (i8*, ...) @__isoc99_scanf(i8* getelementptr inbounds ([3 x i8], [3 x i8]* @.str, i64 0, i64 0), i32* %2)
  store i32 0, i32* %3, align 4
  br label %17

17:                                               ; preds = %32, %0
  %18 = load i32, i32* %3, align 4
  %19 = load i32, i32* %2, align 4
  %20 = icmp slt i32 %18, %19
  br i1 %20, label %21, label %35

21:                                               ; preds = %17
  %22 = load i32, i32* %3, align 4
  %23 = sext i32 %22 to i64
  %24 = getelementptr inbounds [10 x i32], [10 x i32]* %9, i64 0, i64 %23
  %25 = load i32, i32* %3, align 4
  %26 = sext i32 %25 to i64
  %27 = getelementptr inbounds [10 x i32], [10 x i32]* %10, i64 0, i64 %26
  %28 = load i32, i32* %3, align 4
  %29 = sext i32 %28 to i64
  %30 = getelementptr inbounds [10 x i32], [10 x i32]* %11, i64 0, i64 %29
  %31 = call i32 (i8*, ...) @__isoc99_scanf(i8* getelementptr inbounds ([9 x i8], [9 x i8]* @.str.1, i64 0, i64 0), i32* %24, i32* %27, i32* %30)
  br label %32

32:                                               ; preds = %21
  %33 = load i32, i32* %3, align 4
  %34 = add nsw i32 %33, 1
  store i32 %34, i32* %3, align 4
  br label %17

35:                                               ; preds = %17
  store i32 0, i32* %3, align 4
  br label %36

36:                                               ; preds = %102, %35
  %37 = load i32, i32* %3, align 4
  %38 = load i32, i32* %2, align 4
  %39 = sub nsw i32 %38, 1
  %40 = icmp slt i32 %37, %39
  br i1 %40, label %41, label %105

41:                                               ; preds = %36
  %42 = load i32, i32* %3, align 4
  %43 = add nsw i32 %42, 1
  store i32 %43, i32* %4, align 4
  br label %44

44:                                               ; preds = %98, %41
  %45 = load i32, i32* %4, align 4
  %46 = load i32, i32* %2, align 4
  %47 = icmp slt i32 %45, %46
  br i1 %47, label %48, label %101

48:                                               ; preds = %44
  %49 = load i32, i32* %6, align 4
  %50 = add nsw i32 %49, 1
  store i32 %50, i32* %6, align 4
  %51 = load i32, i32* %3, align 4
  %52 = sext i32 %51 to i64
  %53 = getelementptr inbounds [10 x i32], [10 x i32]* %9, i64 0, i64 %52
  %54 = load i32, i32* %53, align 4
  %55 = load i32, i32* %4, align 4
  %56 = sext i32 %55 to i64
  %57 = getelementptr inbounds [10 x i32], [10 x i32]* %9, i64 0, i64 %56
  %58 = load i32, i32* %57, align 4
  %59 = sub nsw i32 %54, %58
  %60 = sitofp i32 %59 to double
  %61 = call double @pow(double %60, double 2.000000e+00) #3
  %62 = load i32, i32* %3, align 4
  %63 = sext i32 %62 to i64
  %64 = getelementptr inbounds [10 x i32], [10 x i32]* %10, i64 0, i64 %63
  %65 = load i32, i32* %64, align 4
  %66 = load i32, i32* %4, align 4
  %67 = sext i32 %66 to i64
  %68 = getelementptr inbounds [10 x i32], [10 x i32]* %10, i64 0, i64 %67
  %69 = load i32, i32* %68, align 4
  %70 = sub nsw i32 %65, %69
  %71 = sitofp i32 %70 to double
  %72 = call double @pow(double %71, double 2.000000e+00) #3
  %73 = fadd double %61, %72
  %74 = load i32, i32* %3, align 4
  %75 = sext i32 %74 to i64
  %76 = getelementptr inbounds [10 x i32], [10 x i32]* %11, i64 0, i64 %75
  %77 = load i32, i32* %76, align 4
  %78 = load i32, i32* %4, align 4
  %79 = sext i32 %78 to i64
  %80 = getelementptr inbounds [10 x i32], [10 x i32]* %11, i64 0, i64 %79
  %81 = load i32, i32* %80, align 4
  %82 = sub nsw i32 %77, %81
  %83 = sitofp i32 %82 to double
  %84 = call double @pow(double %83, double 2.000000e+00) #3
  %85 = fadd double %73, %84
  %86 = call double @sqrt(double %85) #3
  %87 = load i32, i32* %6, align 4
  %88 = sext i32 %87 to i64
  %89 = getelementptr inbounds [50 x double], [50 x double]* %14, i64 0, i64 %88
  store double %86, double* %89, align 8
  %90 = load i32, i32* %3, align 4
  %91 = load i32, i32* %6, align 4
  %92 = sext i32 %91 to i64
  %93 = getelementptr inbounds [50 x i32], [50 x i32]* %7, i64 0, i64 %92
  store i32 %90, i32* %93, align 4
  %94 = load i32, i32* %4, align 4
  %95 = load i32, i32* %6, align 4
  %96 = sext i32 %95 to i64
  %97 = getelementptr inbounds [50 x i32], [50 x i32]* %8, i64 0, i64 %96
  store i32 %94, i32* %97, align 4
  br label %98

98:                                               ; preds = %48
  %99 = load i32, i32* %4, align 4
  %100 = add nsw i32 %99, 1
  store i32 %100, i32* %4, align 4
  br label %44

101:                                              ; preds = %44
  br label %102

102:                                              ; preds = %101
  %103 = load i32, i32* %3, align 4
  %104 = add nsw i32 %103, 1
  store i32 %104, i32* %3, align 4
  br label %36

105:                                              ; preds = %36
  store i32 1, i32* %3, align 4
  br label %106

106:                                              ; preds = %193, %105
  %107 = load i32, i32* %3, align 4
  %108 = load i32, i32* %2, align 4
  %109 = load i32, i32* %2, align 4
  %110 = sub nsw i32 %109, 1
  %111 = mul nsw i32 %108, %110
  %112 = sdiv i32 %111, 2
  %113 = icmp sle i32 %107, %112
  br i1 %113, label %114, label %196

114:                                              ; preds = %106
  store i32 0, i32* %6, align 4
  br label %115

115:                                              ; preds = %189, %114
  %116 = load i32, i32* %6, align 4
  %117 = load i32, i32* %2, align 4
  %118 = load i32, i32* %2, align 4
  %119 = sub nsw i32 %118, 1
  %120 = mul nsw i32 %117, %119
  %121 = sdiv i32 %120, 2
  %122 = load i32, i32* %3, align 4
  %123 = sub nsw i32 %121, %122
  %124 = icmp slt i32 %116, %123
  br i1 %124, label %125, label %192

125:                                              ; preds = %115
  %126 = load i32, i32* %6, align 4
  %127 = sext i32 %126 to i64
  %128 = getelementptr inbounds [50 x double], [50 x double]* %14, i64 0, i64 %127
  %129 = load double, double* %128, align 8
  %130 = load i32, i32* %6, align 4
  %131 = add nsw i32 %130, 1
  %132 = sext i32 %131 to i64
  %133 = getelementptr inbounds [50 x double], [50 x double]* %14, i64 0, i64 %132
  %134 = load double, double* %133, align 8
  %135 = fcmp olt double %129, %134
  br i1 %135, label %136, label %188

136:                                              ; preds = %125
  %137 = load i32, i32* %6, align 4
  %138 = sext i32 %137 to i64
  %139 = getelementptr inbounds [50 x double], [50 x double]* %14, i64 0, i64 %138
  %140 = load double, double* %139, align 8
  store double %140, double* %15, align 8
  %141 = load i32, i32* %6, align 4
  %142 = add nsw i32 %141, 1
  %143 = sext i32 %142 to i64
  %144 = getelementptr inbounds [50 x double], [50 x double]* %14, i64 0, i64 %143
  %145 = load double, double* %144, align 8
  %146 = load i32, i32* %6, align 4
  %147 = sext i32 %146 to i64
  %148 = getelementptr inbounds [50 x double], [50 x double]* %14, i64 0, i64 %147
  store double %145, double* %148, align 8
  %149 = load double, double* %15, align 8
  %150 = load i32, i32* %6, align 4
  %151 = add nsw i32 %150, 1
  %152 = sext i32 %151 to i64
  %153 = getelementptr inbounds [50 x double], [50 x double]* %14, i64 0, i64 %152
  store double %149, double* %153, align 8
  %154 = load i32, i32* %6, align 4
  %155 = sext i32 %154 to i64
  %156 = getelementptr inbounds [50 x i32], [50 x i32]* %7, i64 0, i64 %155
  %157 = load i32, i32* %156, align 4
  store i32 %157, i32* %5, align 4
  %158 = load i32, i32* %6, align 4
  %159 = add nsw i32 %158, 1
  %160 = sext i32 %159 to i64
  %161 = getelementptr inbounds [50 x i32], [50 x i32]* %7, i64 0, i64 %160
  %162 = load i32, i32* %161, align 4
  %163 = load i32, i32* %6, align 4
  %164 = sext i32 %163 to i64
  %165 = getelementptr inbounds [50 x i32], [50 x i32]* %7, i64 0, i64 %164
  store i32 %162, i32* %165, align 4
  %166 = load i32, i32* %5, align 4
  %167 = load i32, i32* %6, align 4
  %168 = add nsw i32 %167, 1
  %169 = sext i32 %168 to i64
  %170 = getelementptr inbounds [50 x i32], [50 x i32]* %7, i64 0, i64 %169
  store i32 %166, i32* %170, align 4
  %171 = load i32, i32* %6, align 4
  %172 = sext i32 %171 to i64
  %173 = getelementptr inbounds [50 x i32], [50 x i32]* %8, i64 0, i64 %172
  %174 = load i32, i32* %173, align 4
  store i32 %174, i32* %5, align 4
  %175 = load i32, i32* %6, align 4
  %176 = add nsw i32 %175, 1
  %177 = sext i32 %176 to i64
  %178 = getelementptr inbounds [50 x i32], [50 x i32]* %8, i64 0, i64 %177
  %179 = load i32, i32* %178, align 4
  %180 = load i32, i32* %6, align 4
  %181 = sext i32 %180 to i64
  %182 = getelementptr inbounds [50 x i32], [50 x i32]* %8, i64 0, i64 %181
  store i32 %179, i32* %182, align 4
  %183 = load i32, i32* %5, align 4
  %184 = load i32, i32* %6, align 4
  %185 = add nsw i32 %184, 1
  %186 = sext i32 %185 to i64
  %187 = getelementptr inbounds [50 x i32], [50 x i32]* %8, i64 0, i64 %186
  store i32 %183, i32* %187, align 4
  br label %188

188:                                              ; preds = %136, %125
  br label %189

189:                                              ; preds = %188
  %190 = load i32, i32* %6, align 4
  %191 = add nsw i32 %190, 1
  store i32 %191, i32* %6, align 4
  br label %115

192:                                              ; preds = %115
  br label %193

193:                                              ; preds = %192
  %194 = load i32, i32* %3, align 4
  %195 = add nsw i32 %194, 1
  store i32 %195, i32* %3, align 4
  br label %106

196:                                              ; preds = %106
  store i32 0, i32* %6, align 4
  br label %197

197:                                              ; preds = %243, %196
  %198 = load i32, i32* %6, align 4
  %199 = load i32, i32* %2, align 4
  %200 = load i32, i32* %2, align 4
  %201 = sub nsw i32 %200, 1
  %202 = mul nsw i32 %199, %201
  %203 = sdiv i32 %202, 2
  %204 = icmp slt i32 %198, %203
  br i1 %204, label %205, label %246

205:                                              ; preds = %197
  %206 = load i32, i32* %6, align 4
  %207 = sext i32 %206 to i64
  %208 = getelementptr inbounds [50 x i32], [50 x i32]* %7, i64 0, i64 %207
  %209 = load i32, i32* %208, align 4
  store i32 %209, i32* %13, align 4
  %210 = load i32, i32* %6, align 4
  %211 = sext i32 %210 to i64
  %212 = getelementptr inbounds [50 x i32], [50 x i32]* %8, i64 0, i64 %211
  %213 = load i32, i32* %212, align 4
  store i32 %213, i32* %12, align 4
  %214 = load i32, i32* %13, align 4
  %215 = sext i32 %214 to i64
  %216 = getelementptr inbounds [10 x i32], [10 x i32]* %9, i64 0, i64 %215
  %217 = load i32, i32* %216, align 4
  %218 = load i32, i32* %13, align 4
  %219 = sext i32 %218 to i64
  %220 = getelementptr inbounds [10 x i32], [10 x i32]* %10, i64 0, i64 %219
  %221 = load i32, i32* %220, align 4
  %222 = load i32, i32* %13, align 4
  %223 = sext i32 %222 to i64
  %224 = getelementptr inbounds [10 x i32], [10 x i32]* %11, i64 0, i64 %223
  %225 = load i32, i32* %224, align 4
  %226 = load i32, i32* %12, align 4
  %227 = sext i32 %226 to i64
  %228 = getelementptr inbounds [10 x i32], [10 x i32]* %9, i64 0, i64 %227
  %229 = load i32, i32* %228, align 4
  %230 = load i32, i32* %12, align 4
  %231 = sext i32 %230 to i64
  %232 = getelementptr inbounds [10 x i32], [10 x i32]* %10, i64 0, i64 %231
  %233 = load i32, i32* %232, align 4
  %234 = load i32, i32* %12, align 4
  %235 = sext i32 %234 to i64
  %236 = getelementptr inbounds [10 x i32], [10 x i32]* %11, i64 0, i64 %235
  %237 = load i32, i32* %236, align 4
  %238 = load i32, i32* %6, align 4
  %239 = sext i32 %238 to i64
  %240 = getelementptr inbounds [50 x double], [50 x double]* %14, i64 0, i64 %239
  %241 = load double, double* %240, align 8
  %242 = call i32 (i8*, ...) @printf(i8* getelementptr inbounds ([29 x i8], [29 x i8]* @.str.2, i64 0, i64 0), i32 %217, i32 %221, i32 %225, i32 %229, i32 %233, i32 %237, double %241)
  br label %243

243:                                              ; preds = %205
  %244 = load i32, i32* %6, align 4
  %245 = add nsw i32 %244, 1
  store i32 %245, i32* %6, align 4
  br label %197

246:                                              ; preds = %197
  ret i32 0
}

declare dso_local i32 @__isoc99_scanf(i8*, ...) #1

; Function Attrs: nounwind
declare dso_local double @sqrt(double) #2

; Function Attrs: nounwind
declare dso_local double @pow(double, double) #2

declare dso_local i32 @printf(i8*, ...) #1


!llvm.module.flags = !{!0}
!llvm.ident = !{!1}

!0 = !{i32 1, !"wchar_size", i32 4}
!1 = !{!"clang version 10.0.0-4ubuntu1 "}
